; Function Attrs: mustprogress uwtable
define hidden noundef zeroext i1 @_ZNK7datalog14mk_synchronize21has_recursive_premiseEP3app(ptr noundef nonnull readonly align 8 captures(none) dereferenceable(88) %0, ptr noundef readonly captures(none) %1) local_unnamed_addr #3 align 2 {
  %3 = getelementptr inbounds nuw i8, ptr %1, i64 16
  %4 = load ptr, ptr %3, align 8, !tbaa !228
  %5 = getelementptr inbounds nuw i8, ptr %0, i64 48
  %6 = load ptr, ptr %5, align 8, !tbaa !221
  %7 = tail call noundef nonnull align 8 dereferenceable(20) ptr @_ZNK7datalog17rule_dependencies8get_depsEP9func_decl(ptr noundef nonnull align 8 dereferenceable(88) %6, ptr noundef %4)
  %8 = getelementptr inbounds nuw i8, ptr %4, i64 12
  %9 = load i32, ptr %8, align 4, !tbaa !238
  %10 = getelementptr inbounds nuw i8, ptr %7, i64 8
  %11 = load i32, ptr %10, align 8, !tbaa !239
  %12 = add i32 %11, -1
  %13 = and i32 %12, %9
  %14 = load ptr, ptr %7, align 8, !tbaa !240
  %15 = zext i32 %13 to i64
  %16 = getelementptr inbounds nuw %class.obj_hash_entry.150, ptr %14, i64 %15
  %17 = zext i32 %11 to i64
  %18 = getelementptr inbounds nuw %class.obj_hash_entry.150, ptr %14, i64 %17
  %.not35.i.i = icmp eq i32 %13, %11
  br i1 %.not35.i.i, label %.preheader.i.i, label %.lr.ph.i.i

.preheader.i.i:                                   ; preds = %25, %2
  %.not2737.i.i = icmp eq i32 %13, 0
  br i1 %.not2737.i.i, label %.loopexit, label %.lr.ph39.i.i

.lr.ph.i.i:                                       ; preds = %2, %25
  %.036.i.i = phi ptr [ %26, %25 ], [ %16, %2 ]
  %19 = load ptr, ptr %.036.i.i, align 8, !tbaa !241
  %magicptr30.i.i = ptrtoint ptr %19 to i64
  switch i64 %magicptr30.i.i, label %20 [
    i64 0, label %.loopexit
    i64 1, label %25
  ]

20:                                               ; preds = %.lr.ph.i.i
  %21 = getelementptr inbounds nuw i8, ptr %19, i64 12
  %22 = load i32, ptr %21, align 4, !tbaa !238
  %23 = icmp eq i32 %22, %9
  %24 = icmp eq ptr %19, %4
  %or.cond.i.i = and i1 %24, %23
  br i1 %or.cond.i.i, label %_ZNK14core_hashtableI14obj_hash_entryI9func_declE12obj_ptr_hashIS1_E6ptr_eqIS1_EE8containsERKPS1_.exit, label %25

25:                                               ; preds = %20, %.lr.ph.i.i
  %26 = getelementptr inbounds nuw i8, ptr %.036.i.i, i64 8
  %.not.i.i = icmp eq ptr %26, %18
  br i1 %.not.i.i, label %.preheader.i.i, label %.lr.ph.i.i, !llvm.loop !243

.lr.ph39.i.i:                                     ; preds = %.preheader.i.i, %33
  %.138.i.i = phi ptr [ %34, %33 ], [ %14, %.preheader.i.i ]
  %27 = load ptr, ptr %.138.i.i, align 8, !tbaa !241
  %magicptr32.i.i = ptrtoint ptr %27 to i64
  switch i64 %magicptr32.i.i, label %28 [
    i64 0, label %.loopexit
    i64 1, label %33
  ]

28:                                               ; preds = %.lr.ph39.i.i
  %29 = getelementptr inbounds nuw i8, ptr %27, i64 12
  %30 = load i32, ptr %29, align 4, !tbaa !238
  %31 = icmp eq i32 %30, %9
  %32 = icmp eq ptr %27, %4
  %or.cond31.i.i = and i1 %32, %31
  br i1 %or.cond31.i.i, label %_ZNK14core_hashtableI14obj_hash_entryI9func_declE12obj_ptr_hashIS1_E6ptr_eqIS1_EE8containsERKPS1_.exit, label %33

33:                                               ; preds = %28, %.lr.ph39.i.i
  %34 = getelementptr inbounds nuw i8, ptr %.138.i.i, i64 8
  %.not27.i.i = icmp eq ptr %34, %16
  br i1 %.not27.i.i, label %.loopexit, label %.lr.ph39.i.i, !llvm.loop !244

.loopexit:                                        ; preds = %.lr.ph.i.i, %.lr.ph39.i.i, %33, %.preheader.i.i
  %35 = getelementptr inbounds nuw i8, ptr %0, i64 56
  %36 = load ptr, ptr %35, align 8, !tbaa !220
  %37 = getelementptr inbounds nuw i8, ptr %36, i64 8
  %38 = tail call noundef i32 @_ZNK7datalog15rule_stratifier19get_predicate_stratEP9func_decl(ptr noundef nonnull align 8 dereferenceable(120) %36, ptr noundef %4)
  %39 = load ptr, ptr %37, align 8, !tbaa !233
  %40 = zext i32 %38 to i64
  %41 = getelementptr inbounds nuw ptr, ptr %39, i64 %40
  %42 = load ptr, ptr %41, align 8, !tbaa !236
  %43 = getelementptr inbounds nuw i8, ptr %42, i64 12
  %44 = load i32, ptr %43, align 4, !tbaa !245
  %45 = icmp ugt i32 %44, 1
  br label %_ZNK14core_hashtableI14obj_hash_entryI9func_declE12obj_ptr_hashIS1_E6ptr_eqIS1_EE8containsERKPS1_.exit

_ZNK14core_hashtableI14obj_hash_entryI9func_declE12obj_ptr_hashIS1_E6ptr_eqIS1_EE8containsERKPS1_.exit: ; preds = %20, %28, %.loopexit
  %.0 = phi i1 [ %45, %.loopexit ], [ true, %28 ], [ true, %20 ]
  ret i1 %.0
}